target datalayout = "e-m:e-p270:32:32-p271:32:32-p272:64:64-i64:64-i128:128-f80:128-n8:16:32:64-S128"
target triple = "x86_64-unknown-linux-gnu"

%class.btGeneric6DofSpring2Constraint = type <{ %class.btTypedConstraint, %class.btTransform, %class.btTransform, [3 x %class.btJacobianEntry], [3 x %class.btJacobianEntry], %class.btTranslationalLimitMotor2, [3 x %class.btRotationalLimitMotor2], i32, %class.btTransform, %class.btTransform, %class.btVector3, [3 x %class.btVector3], %class.btVector3, float, float, i8, [3 x i8], i32, [4 x i8] }>
%class.btTypedConstraint = type { ptr, %struct.btTypedObject, i32, %union.anon.0, float, i8, i8, i32, ptr, ptr, float, float, ptr }
%struct.btTypedObject = type { i32 }
%union.anon.0 = type { ptr }
%class.btJacobianEntry = type { %class.btVector3, %class.btVector3, %class.btVector3, %class.btVector3, %class.btVector3, float }
%class.btTranslationalLimitMotor2 = type { %class.btVector3, %class.btVector3, %class.btVector3, %class.btVector3, %class.btVector3, %class.btVector3, %class.btVector3, [3 x i8], [3 x i8], [3 x i8], %class.btVector3, %class.btVector3, [3 x i8], %class.btVector3, [3 x i8], %class.btVector3, %class.btVector3, %class.btVector3, %class.btVector3, %class.btVector3, %class.btVector3, [3 x i32] }
%class.btRotationalLimitMotor2 = type { float, float, float, float, float, float, float, i8, float, float, i8, float, i8, float, i8, float, i8, float, float, float, float, i32 }
%class.btTransform = type { %class.btMatrix3x3, %class.btVector3 }
%class.btMatrix3x3 = type { [3 x %class.btVector3] }
%class.btVector3 = type { [4 x float] }

; Function Attrs: mustprogress nounwind uwtable
define linkonce_odr dso_local noundef float @_ZSt5floorf(float noundef %__x) #1 comdat {
entry:
  %__x.addr = alloca float, align 4
  store float %__x, ptr %__x.addr, align 4
  %0 = load float, ptr %__x.addr, align 4
  %1 = call float @llvm.floor.f32(float %0)
  ret float %1
}

; Function Attrs: mustprogress nounwind uwtable
define linkonce_odr dso_local noundef ptr @_ZN9btVector3cvPfEv(ptr noundef nonnull align 4 dereferenceable(16) %this) #1 comdat align 2 {
entry:
  %this.addr = alloca ptr, align 8
  store ptr %this, ptr %this.addr, align 8
  %this1 = load ptr, ptr %this.addr, align 8
  %m_floats = getelementptr inbounds %class.btVector3, ptr %this1, i32 0, i32 0
  %arrayidx = getelementptr inbounds [4 x float], ptr %m_floats, i64 0, i64 0
  ret ptr %arrayidx
}

; Function Attrs: mustprogress uwtable
define dso_local void @_ZN30btGeneric6DofSpring2Constraint14setServoTargetEif(ptr noundef nonnull align 8 dereferenceable(1484) %this, i32 noundef %index, float noundef %targetOrg) #2 align 2 {
entry:
  %this.addr = alloca ptr, align 8
  %index.addr = alloca i32, align 4
  %targetOrg.addr = alloca float, align 4
  %target = alloca float, align 4
  %m = alloca float, align 4
  store ptr %this, ptr %this.addr, align 8
  store i32 %index, ptr %index.addr, align 4
  store float %targetOrg, ptr %targetOrg.addr, align 4
  %this1 = load ptr, ptr %this.addr, align 8
  %0 = load i32, ptr %index.addr, align 4
  %cmp = icmp slt i32 %0, 3
  br i1 %cmp, label %if.then, label %if.else

if.then:                                          ; preds = %entry
  %1 = load float, ptr %targetOrg.addr, align 4
  %m_linearLimits = getelementptr inbounds %class.btGeneric6DofSpring2Constraint, ptr %this1, i32 0, i32 5
  %m_servoTarget = getelementptr inbounds %class.btTranslationalLimitMotor2, ptr %m_linearLimits, i32 0, i32 10
  %call = call noundef ptr @_ZN9btVector3cvPfEv(ptr noundef nonnull align 4 dereferenceable(16) %m_servoTarget)
  %2 = load i32, ptr %index.addr, align 4
  %idxprom = sext i32 %2 to i64
  %arrayidx = getelementptr inbounds float, ptr %call, i64 %idxprom
  store float %1, ptr %arrayidx, align 4
  br label %if.end20

if.else:                                          ; preds = %entry
  %3 = load float, ptr %targetOrg.addr, align 4
  %add = fadd float %3, 0x400921FB60000000
  store float %add, ptr %target, align 4
  %4 = load float, ptr %target, align 4
  %5 = load float, ptr %target, align 4
  %div = fdiv float %5, 0x401921FB60000000
  %call2 = call noundef float @_ZSt5floorf(float noundef %div)
  %6 = call float @llvm.fmuladd.f32(float 0xC01921FB60000000, float %call2, float %4)
  store float %6, ptr %m, align 4
  %7 = load float, ptr %m, align 4
  %cmp3 = fcmp oge float %7, 0x401921FB60000000
  br i1 %cmp3, label %if.then4, label %if.else5

if.then4:                                         ; preds = %if.else
  store float 0.000000e+00, ptr %target, align 4
  br label %if.end15

if.else5:                                         ; preds = %if.else
  %8 = load float, ptr %m, align 4
  %cmp6 = fcmp olt float %8, 0.000000e+00
  br i1 %cmp6, label %if.then7, label %if.else13

if.then7:                                         ; preds = %if.else5
  %9 = load float, ptr %m, align 4
  %add8 = fadd float 0x401921FB60000000, %9
  %cmp9 = fcmp oeq float %add8, 0x401921FB60000000
  br i1 %cmp9, label %if.then10, label %if.else11

if.then10:                                        ; preds = %if.then7
  store float 0.000000e+00, ptr %target, align 4
  br label %if.end

if.else11:                                        ; preds = %if.then7
  %10 = load float, ptr %m, align 4
  %add12 = fadd float 0x401921FB60000000, %10
  store float %add12, ptr %target, align 4
  br label %if.end

if.end:                                           ; preds = %if.else11, %if.then10
  br label %if.end14

if.else13:                                        ; preds = %if.else5
  %11 = load float, ptr %m, align 4
  store float %11, ptr %target, align 4
  br label %if.end14

if.end14:                                         ; preds = %if.else13, %if.end
  br label %if.end15

if.end15:                                         ; preds = %if.end14, %if.then4
  %12 = load float, ptr %target, align 4
  %sub = fsub float %12, 0x400921FB60000000
  store float %sub, ptr %target, align 4
  %13 = load float, ptr %target, align 4
  %m_angularLimits = getelementptr inbounds %class.btGeneric6DofSpring2Constraint, ptr %this1, i32 0, i32 6
  %14 = load i32, ptr %index.addr, align 4
  %sub16 = sub nsw i32 %14, 3
  %idxprom17 = sext i32 %sub16 to i64
  %arrayidx18 = getelementptr inbounds [3 x %class.btRotationalLimitMotor2], ptr %m_angularLimits, i64 0, i64 %idxprom17
  %m_servoTarget19 = getelementptr inbounds %class.btRotationalLimitMotor2, ptr %arrayidx18, i32 0, i32 11
  store float %13, ptr %m_servoTarget19, align 4
  br label %if.end20

if.end20:                                         ; preds = %if.end15, %if.then
  ret void
}