; Function Attrs: mustprogress nofree norecurse nosync nounwind willreturn memory(argmem: write) uwtable
define dso_local void @_ZN30btGeneric6DofSpring2Constraint14setServoTargetEif(ptr nocapture noundef nonnull writeonly align 8 dereferenceable(1484) %this, i32 noundef %index, float noundef %targetOrg) local_unnamed_addr #14 align 2 {
entry:
  %cmp = icmp slt i32 %index, 3
  br i1 %cmp, label %if.then, label %if.else

if.then:                                          ; preds = %entry
  %m_servoTarget = getelementptr inbounds i8, ptr %this, i64 828
  %idxprom = sext i32 %index to i64
  %arrayidx = getelementptr inbounds float, ptr %m_servoTarget, i64 %idxprom
  store float %targetOrg, ptr %arrayidx, align 4
  br label %if.end20

if.else:                                          ; preds = %entry
  %add = fadd float %targetOrg, 0x400921FB60000000
  %div = fdiv float %add, 0x401921FB60000000
  %0 = tail call noundef float @llvm.floor.f32(float %div)
  %1 = tail call float @llvm.fmuladd.f32(float %0, float 0xC01921FB60000000, float %add)
  %cmp3 = fcmp ult float %1, 0x401921FB60000000
  br i1 %cmp3, label %if.else5, label %if.end15

if.else5:                                         ; preds = %if.else
  %cmp6 = fcmp olt float %1, 0.000000e+00
  br i1 %cmp6, label %if.then7, label %if.end15

if.then7:                                         ; preds = %if.else5
  %add8 = fadd float %1, 0x401921FB60000000
  %cmp9 = fcmp oeq float %add8, 0x401921FB60000000
  %.add8 = select i1 %cmp9, float 0.000000e+00, float %add8
  br label %if.end15

if.end15:                                         ; preds = %if.else5, %if.then7, %if.else
  %target.0 = phi float [ 0.000000e+00, %if.else ], [ %.add8, %if.then7 ], [ %1, %if.else5 ]
  %sub = fadd float %target.0, 0xC00921FB60000000
  %m_angularLimits = getelementptr inbounds i8, ptr %this, i64 992
  %sub16 = add nsw i32 %index, -3
  %idxprom17 = zext nneg i32 %sub16 to i64
  %m_servoTarget19 = getelementptr inbounds [3 x %class.btRotationalLimitMotor2], ptr %m_angularLimits, i64 0, i64 %idxprom17, i32 11
  store float %sub, ptr %m_servoTarget19, align 4
  br label %if.end20

if.end20:                                         ; preds = %if.end15, %if.then
  ret void
}